target datalayout = "e-m:e-p270:32:32-p271:32:32-p272:64:64-i64:64-i128:128-f80:128-n8:16:32:64-S128"
target triple = "x86_64-pc-linux-gnu"

%struct.reftable_write_options = type { i8, i32, i8, i16, i32, i32, i8, i8, i64, ptr, ptr, ptr }
%struct.reftable_stack = type { %struct.stat, ptr, i32, ptr, %struct.reftable_write_options, ptr, i64, ptr, %struct.reftable_compaction_stats }
%struct.stat = type { i64, i64, i64, i32, i32, i32, i32, i64, i64, i64, i64, %struct.timespec, %struct.timespec, %struct.timespec, [3 x i64] }
%struct.timespec = type { i64, i64 }
%struct.reftable_compaction_stats = type { i64, i64, i32, i32 }
%struct.reftable_reader = type { ptr, %struct.reftable_block_source, i64, i32, i32, i64, i64, i32, i32, %struct.reftable_reader_offsets, %struct.reftable_reader_offsets, %struct.reftable_reader_offsets, i64 }
%struct.reftable_block_source = type { ptr, ptr }
%struct.reftable_reader_offsets = type { i32, i64, i64 }
%struct.reftable_merged_table = type { ptr, i64, i32, i32, i64, i64 }
%struct.segment = type { i64, i64, i64 }

; Function Attrs: nounwind uwtable
define internal i32 @segment_size(ptr noundef %0) #0 {
  %2 = alloca ptr, align 8
  store ptr %0, ptr %2, align 8, !tbaa !145
  %3 = load ptr, ptr %2, align 8, !tbaa !145
  %4 = getelementptr inbounds nuw %struct.segment, ptr %3, i32 0, i32 1
  %5 = load i64, ptr %4, align 8, !tbaa !90
  %6 = load ptr, ptr %2, align 8, !tbaa !145
  %7 = getelementptr inbounds nuw %struct.segment, ptr %6, i32 0, i32 0
  %8 = load i64, ptr %7, align 8, !tbaa !88
  %9 = sub i64 %5, %8
  %10 = trunc i64 %9 to i32
  ret i32 %10
}

; Function Attrs: nounwind uwtable
define dso_local void @suggest_compaction_segment(ptr dead_on_unwind noalias writable sret(%struct.segment) align 8 %0, ptr noundef %1, i64 noundef %2, i8 noundef zeroext %3) #0 {
  %5 = alloca ptr, align 8
  %6 = alloca i64, align 8
  %7 = alloca i8, align 1
  %8 = alloca i64, align 8
  %9 = alloca i64, align 8
  %10 = alloca i32, align 4
  %11 = alloca i64, align 8
  store ptr %1, ptr %5, align 8, !tbaa !84
  store i64 %2, ptr %6, align 8, !tbaa !21
  store i8 %3, ptr %7, align 1, !tbaa !18
  call void @llvm.memset.p0.i64(ptr align 8 %0, i8 0, i64 24, i1 false)
  call void @llvm.lifetime.start.p0(i64 8, ptr %8) #10
  call void @llvm.lifetime.start.p0(i64 8, ptr %9) #10
  %12 = load i8, ptr %7, align 1, !tbaa !18
  %13 = icmp ne i8 %12, 0
  br i1 %13, label %15, label %14

14:                                               ; preds = %4
  store i8 2, ptr %7, align 1, !tbaa !18
  br label %15

15:                                               ; preds = %14, %4
  %16 = load i64, ptr %6, align 8, !tbaa !21
  %17 = icmp ule i64 %16, 1
  br i1 %17, label %18, label %19

18:                                               ; preds = %15
  store i32 1, ptr %10, align 4
  br label %85

19:                                               ; preds = %15
  %20 = load i64, ptr %6, align 8, !tbaa !21
  %21 = sub i64 %20, 1
  store i64 %21, ptr %9, align 8, !tbaa !21
  br label %22

22:                                               ; preds = %48, %19
  %23 = load i64, ptr %9, align 8, !tbaa !21
  %24 = icmp ugt i64 %23, 0
  br i1 %24, label %25, label %51

25:                                               ; preds = %22
  %26 = load ptr, ptr %5, align 8, !tbaa !84
  %27 = load i64, ptr %9, align 8, !tbaa !21
  %28 = sub i64 %27, 1
  %29 = getelementptr inbounds nuw i64, ptr %26, i64 %28
  %30 = load i64, ptr %29, align 8, !tbaa !21
  %31 = load ptr, ptr %5, align 8, !tbaa !84
  %32 = load i64, ptr %9, align 8, !tbaa !21
  %33 = getelementptr inbounds nuw i64, ptr %31, i64 %32
  %34 = load i64, ptr %33, align 8, !tbaa !21
  %35 = load i8, ptr %7, align 1, !tbaa !18
  %36 = zext i8 %35 to i64
  %37 = mul i64 %34, %36
  %38 = icmp ult i64 %30, %37
  br i1 %38, label %39, label %47

39:                                               ; preds = %25
  %40 = load i64, ptr %9, align 8, !tbaa !21
  %41 = add i64 %40, 1
  %42 = getelementptr inbounds nuw %struct.segment, ptr %0, i32 0, i32 1
  store i64 %41, ptr %42, align 8, !tbaa !90
  %43 = load ptr, ptr %5, align 8, !tbaa !84
  %44 = load i64, ptr %9, align 8, !tbaa !21
  %45 = getelementptr inbounds nuw i64, ptr %43, i64 %44
  %46 = load i64, ptr %45, align 8, !tbaa !21
  store i64 %46, ptr %8, align 8, !tbaa !21
  br label %51

47:                                               ; preds = %25
  br label %48

48:                                               ; preds = %47
  %49 = load i64, ptr %9, align 8, !tbaa !21
  %50 = add i64 %49, -1
  store i64 %50, ptr %9, align 8, !tbaa !21
  br label %22, !llvm.loop !139

51:                                               ; preds = %39, %22
  br label %52

52:                                               ; preds = %81, %51
  %53 = load i64, ptr %9, align 8, !tbaa !21
  %54 = icmp ugt i64 %53, 0
  br i1 %54, label %55, label %84

55:                                               ; preds = %52
  call void @llvm.lifetime.start.p0(i64 8, ptr %11) #10
  %56 = load i64, ptr %8, align 8, !tbaa !21
  store i64 %56, ptr %11, align 8, !tbaa !21
  %57 = load ptr, ptr %5, align 8, !tbaa !84
  %58 = load i64, ptr %9, align 8, !tbaa !21
  %59 = sub i64 %58, 1
  %60 = getelementptr inbounds nuw i64, ptr %57, i64 %59
  %61 = load i64, ptr %60, align 8, !tbaa !21
  %62 = load i64, ptr %8, align 8, !tbaa !21
  %63 = add i64 %62, %61
  store i64 %63, ptr %8, align 8, !tbaa !21
  %64 = load ptr, ptr %5, align 8, !tbaa !84
  %65 = load i64, ptr %9, align 8, !tbaa !21
  %66 = sub i64 %65, 1
  %67 = getelementptr inbounds nuw i64, ptr %64, i64 %66
  %68 = load i64, ptr %67, align 8, !tbaa !21
  %69 = load i64, ptr %11, align 8, !tbaa !21
  %70 = load i8, ptr %7, align 1, !tbaa !18
  %71 = zext i8 %70 to i64
  %72 = mul i64 %69, %71
  %73 = icmp ult i64 %68, %72
  br i1 %73, label %74, label %80

74:                                               ; preds = %55
  %75 = load i64, ptr %9, align 8, !tbaa !21
  %76 = sub i64 %75, 1
  %77 = getelementptr inbounds nuw %struct.segment, ptr %0, i32 0, i32 0
  store i64 %76, ptr %77, align 8, !tbaa !88
  %78 = load i64, ptr %8, align 8, !tbaa !21
  %79 = getelementptr inbounds nuw %struct.segment, ptr %0, i32 0, i32 2
  store i64 %78, ptr %79, align 8, !tbaa !140
  br label %80

80:                                               ; preds = %74, %55
  call void @llvm.lifetime.end.p0(i64 8, ptr %11) #10
  br label %81

81:                                               ; preds = %80
  %82 = load i64, ptr %9, align 8, !tbaa !21
  %83 = add i64 %82, -1
  store i64 %83, ptr %9, align 8, !tbaa !21
  br label %52, !llvm.loop !141

84:                                               ; preds = %52
  store i32 1, ptr %10, align 4
  br label %85

85:                                               ; preds = %84, %18
  call void @llvm.lifetime.end.p0(i64 8, ptr %9) #10
  call void @llvm.lifetime.end.p0(i64 8, ptr %8) #10
  ret void
}

; Function Attrs: nounwind uwtable
define internal ptr @stack_table_sizes_for_compaction(ptr noundef %0) #0 {
  %2 = alloca ptr, align 8
  %3 = alloca ptr, align 8
  %4 = alloca i32, align 4
  %5 = alloca i32, align 4
  %6 = alloca ptr, align 8
  %7 = alloca i32, align 4
  %8 = alloca i64, align 8
  store ptr %0, ptr %3, align 8, !tbaa !13
  call void @llvm.lifetime.start.p0(i64 4, ptr %4) #10
  %9 = load ptr, ptr %3, align 8, !tbaa !13
  %10 = getelementptr inbounds nuw %struct.reftable_stack, ptr %9, i32 0, i32 4
  %11 = getelementptr inbounds nuw %struct.reftable_write_options, ptr %10, i32 0, i32 4
  %12 = load i32, ptr %11, align 4, !tbaa !142
  %13 = icmp eq i32 %12, 89
  %14 = select i1 %13, i32 1, i32 2
  store i32 %14, ptr %4, align 4, !tbaa !15
  call void @llvm.lifetime.start.p0(i64 4, ptr %5) #10
  %15 = load i32, ptr %4, align 4, !tbaa !15
  %16 = call i64 @header_size(i32 noundef %15)
  %17 = sub i64 %16, 1
  %18 = trunc i64 %17 to i32
  store i32 %18, ptr %5, align 4, !tbaa !15
  call void @llvm.lifetime.start.p0(i64 8, ptr %6) #10
  %19 = load ptr, ptr %3, align 8, !tbaa !13
  %20 = getelementptr inbounds nuw %struct.reftable_stack, ptr %19, i32 0, i32 7
  %21 = load ptr, ptr %20, align 8, !tbaa !43
  %22 = getelementptr inbounds nuw %struct.reftable_merged_table, ptr %21, i32 0, i32 1
  %23 = load i64, ptr %22, align 8, !tbaa !68
  %24 = call ptr @reftable_calloc(i64 noundef %23, i64 noundef 8)
  store ptr %24, ptr %6, align 8, !tbaa !84
  %25 = load ptr, ptr %6, align 8, !tbaa !84
  %26 = icmp ne ptr %25, null
  br i1 %26, label %28, label %27

27:                                               ; preds = %1
  store ptr null, ptr %2, align 8
  store i32 1, ptr %7, align 4
  br label %58

28:                                               ; preds = %1
  call void @llvm.lifetime.start.p0(i64 8, ptr %8) #10
  store i64 0, ptr %8, align 8, !tbaa !21
  br label %29

29:                                               ; preds = %53, %28
  %30 = load i64, ptr %8, align 8, !tbaa !21
  %31 = load ptr, ptr %3, align 8, !tbaa !13
  %32 = getelementptr inbounds nuw %struct.reftable_stack, ptr %31, i32 0, i32 7
  %33 = load ptr, ptr %32, align 8, !tbaa !43
  %34 = getelementptr inbounds nuw %struct.reftable_merged_table, ptr %33, i32 0, i32 1
  %35 = load i64, ptr %34, align 8, !tbaa !68
  %36 = icmp ult i64 %30, %35
  br i1 %36, label %38, label %37

37:                                               ; preds = %29
  store i32 2, ptr %7, align 4
  call void @llvm.lifetime.end.p0(i64 8, ptr %8) #10
  br label %56

38:                                               ; preds = %29
  %39 = load ptr, ptr %3, align 8, !tbaa !13
  %40 = getelementptr inbounds nuw %struct.reftable_stack, ptr %39, i32 0, i32 5
  %41 = load ptr, ptr %40, align 8, !tbaa !44
  %42 = load i64, ptr %8, align 8, !tbaa !21
  %43 = getelementptr inbounds nuw ptr, ptr %41, i64 %42
  %44 = load ptr, ptr %43, align 8, !tbaa !46
  %45 = getelementptr inbounds nuw %struct.reftable_reader, ptr %44, i32 0, i32 2
  %46 = load i64, ptr %45, align 8, !tbaa !143
  %47 = load i32, ptr %5, align 4, !tbaa !15
  %48 = sext i32 %47 to i64
  %49 = sub i64 %46, %48
  %50 = load ptr, ptr %6, align 8, !tbaa !84
  %51 = load i64, ptr %8, align 8, !tbaa !21
  %52 = getelementptr inbounds nuw i64, ptr %50, i64 %51
  store i64 %49, ptr %52, align 8, !tbaa !21
  br label %53

53:                                               ; preds = %38
  %54 = load i64, ptr %8, align 8, !tbaa !21
  %55 = add i64 %54, 1
  store i64 %55, ptr %8, align 8, !tbaa !21
  br label %29, !llvm.loop !144

56:                                               ; preds = %37
  %57 = load ptr, ptr %6, align 8, !tbaa !84
  store ptr %57, ptr %2, align 8
  store i32 1, ptr %7, align 4
  br label %58

58:                                               ; preds = %56, %27
  call void @llvm.lifetime.end.p0(i64 8, ptr %6) #10
  call void @llvm.lifetime.end.p0(i64 4, ptr %5) #10
  call void @llvm.lifetime.end.p0(i64 4, ptr %4) #10
  %59 = load ptr, ptr %2, align 8
  ret ptr %59
}

; Function Attrs: nounwind uwtable
define dso_local i32 @reftable_stack_auto_compact(ptr noundef %0) #0 {
  %2 = alloca i32, align 4
  %3 = alloca ptr, align 8
  %4 = alloca %struct.segment, align 8
  %5 = alloca ptr, align 8
  %6 = alloca i32, align 4
  %7 = alloca %struct.segment, align 8
  store ptr %0, ptr %3, align 8, !tbaa !13
  call void @llvm.lifetime.start.p0(i64 24, ptr %4) #10
  call void @llvm.lifetime.start.p0(i64 8, ptr %5) #10
  %8 = load ptr, ptr %3, align 8, !tbaa !13
  %9 = getelementptr inbounds nuw %struct.reftable_stack, ptr %8, i32 0, i32 7
  %10 = load ptr, ptr %9, align 8, !tbaa !43
  %11 = getelementptr inbounds nuw %struct.reftable_merged_table, ptr %10, i32 0, i32 1
  %12 = load i64, ptr %11, align 8, !tbaa !68
  %13 = icmp ult i64 %12, 2
  br i1 %13, label %14, label %15

14:                                               ; preds = %1
  store i32 0, ptr %2, align 4
  store i32 1, ptr %6, align 4
  br label %44

15:                                               ; preds = %1
  %16 = load ptr, ptr %3, align 8, !tbaa !13
  %17 = call ptr @stack_table_sizes_for_compaction(ptr noundef %16)
  store ptr %17, ptr %5, align 8, !tbaa !84
  %18 = load ptr, ptr %5, align 8, !tbaa !84
  %19 = icmp ne ptr %18, null
  br i1 %19, label %21, label %20

20:                                               ; preds = %15
  store i32 -13, ptr %2, align 4
  store i32 1, ptr %6, align 4
  br label %44

21:                                               ; preds = %15
  call void @llvm.lifetime.start.p0(i64 24, ptr %7) #10
  %22 = load ptr, ptr %5, align 8, !tbaa !84
  %23 = load ptr, ptr %3, align 8, !tbaa !13
  %24 = getelementptr inbounds nuw %struct.reftable_stack, ptr %23, i32 0, i32 7
  %25 = load ptr, ptr %24, align 8, !tbaa !43
  %26 = getelementptr inbounds nuw %struct.reftable_merged_table, ptr %25, i32 0, i32 1
  %27 = load i64, ptr %26, align 8, !tbaa !68
  %28 = load ptr, ptr %3, align 8, !tbaa !13
  %29 = getelementptr inbounds nuw %struct.reftable_stack, ptr %28, i32 0, i32 4
  %30 = getelementptr inbounds nuw %struct.reftable_write_options, ptr %29, i32 0, i32 7
  %31 = load i8, ptr %30, align 1, !tbaa !86
  call void @suggest_compaction_segment(ptr dead_on_unwind writable sret(%struct.segment) align 8 %7, ptr noundef %22, i64 noundef %27, i8 noundef zeroext %31)
  call void @llvm.memcpy.p0.p0.i64(ptr align 8 %4, ptr align 8 %7, i64 24, i1 false), !tbaa.struct !87
  call void @llvm.lifetime.end.p0(i64 24, ptr %7) #10
  %32 = load ptr, ptr %5, align 8, !tbaa !84
  call void @reftable_free(ptr noundef %32)
  %33 = call i32 @segment_size(ptr noundef %4)
  %34 = icmp sgt i32 %33, 0
  br i1 %34, label %35, label %43

35:                                               ; preds = %21
  %36 = load ptr, ptr %3, align 8, !tbaa !13
  %37 = getelementptr inbounds nuw %struct.segment, ptr %4, i32 0, i32 0
  %38 = load i64, ptr %37, align 8, !tbaa !88
  %39 = getelementptr inbounds nuw %struct.segment, ptr %4, i32 0, i32 1
  %40 = load i64, ptr %39, align 8, !tbaa !90
  %41 = sub i64 %40, 1
  %42 = call i32 @stack_compact_range(ptr noundef %36, i64 noundef %38, i64 noundef %41, ptr noundef null, i32 noundef 1)
  store i32 %42, ptr %2, align 4
  store i32 1, ptr %6, align 4
  br label %44

43:                                               ; preds = %21
  store i32 0, ptr %2, align 4
  store i32 1, ptr %6, align 4
  br label %44

44:                                               ; preds = %43, %35, %20, %14
  call void @llvm.lifetime.end.p0(i64 8, ptr %5) #10
  call void @llvm.lifetime.end.p0(i64 24, ptr %4) #10
  %45 = load i32, ptr %2, align 4
  ret i32 %45
}