; Function Attrs: nounwind uwtable
define dso_local i32 @reftable_stack_auto_compact(ptr noundef %0) local_unnamed_addr #0 {
  %2 = getelementptr inbounds nuw i8, ptr %0, i64 240
  %3 = load ptr, ptr %2, align 8, !tbaa !34
  %4 = getelementptr inbounds nuw i8, ptr %3, i64 8
  %5 = load i64, ptr %4, align 8, !tbaa !36
  %6 = icmp ult i64 %5, 2
  br i1 %6, label %stack_table_sizes_for_compaction.exit, label %7

7:                                                ; preds = %1
  %8 = getelementptr inbounds nuw i8, ptr %0, i64 180
  %9 = load i32, ptr %8, align 4, !tbaa !52
  %10 = icmp eq i32 %9, 89
  %11 = select i1 %10, i32 1, i32 2
  %12 = tail call i64 @header_size(i32 noundef %11) #16
  %13 = load ptr, ptr %2, align 8, !tbaa !34
  %14 = getelementptr inbounds nuw i8, ptr %13, i64 8
  %15 = load i64, ptr %14, align 8, !tbaa !36
  %16 = tail call ptr @reftable_calloc(i64 noundef %15, i64 noundef 8) #16
  %.not.i = icmp eq ptr %16, null
  br i1 %.not.i, label %stack_table_sizes_for_compaction.exit, label %.preheader.i

.preheader.i:                                     ; preds = %7
  %17 = load ptr, ptr %2, align 8, !tbaa !34
  %18 = getelementptr inbounds nuw i8, ptr %17, i64 8
  %19 = load i64, ptr %18, align 8, !tbaa !36
  %.not16.i = icmp eq i64 %19, 0
  br i1 %.not16.i, label %suggest_compaction_segment.exit, label %.lr.ph.i

.lr.ph.i:                                         ; preds = %.preheader.i
  %20 = getelementptr inbounds nuw i8, ptr %0, i64 224
  %21 = load ptr, ptr %20, align 8, !tbaa !38
  %22 = shl i64 %12, 32
  %sext.i = add i64 %22, -4294967296
  %23 = ashr exact i64 %sext.i, 32
  br label %24

24:                                               ; preds = %24, %.lr.ph.i
  %.015.i = phi i64 [ 0, %.lr.ph.i ], [ %31, %24 ]
  %25 = getelementptr inbounds nuw ptr, ptr %21, i64 %.015.i
  %26 = load ptr, ptr %25, align 8, !tbaa !39
  %27 = getelementptr inbounds nuw i8, ptr %26, i64 24
  %28 = load i64, ptr %27, align 8, !tbaa !79
  %29 = sub i64 %28, %23
  %30 = getelementptr inbounds nuw i64, ptr %16, i64 %.015.i
  store i64 %29, ptr %30, align 8, !tbaa !12
  %31 = add nuw i64 %.015.i, 1
  %32 = load i64, ptr %18, align 8, !tbaa !36
  %33 = icmp ult i64 %31, %32
  br i1 %33, label %24, label %.loopexit, !llvm.loop !80

.loopexit:                                        ; preds = %24
  %34 = icmp ult i64 %32, 2
  br i1 %34, label %suggest_compaction_segment.exit, label %.preheader.i10

.preheader.i10:                                   ; preds = %.loopexit
  %35 = getelementptr inbounds nuw i8, ptr %0, i64 189
  %36 = load i8, ptr %35, align 1, !tbaa !81
  %.not.i11 = icmp eq i8 %36, 0
  %spec.store.select.i = select i1 %.not.i11, i8 2, i8 %36
  %invariant.gep.i = getelementptr i8, ptr %16, i64 -16
  %37 = zext i8 %spec.store.select.i to i64
  br label %38

38:                                               ; preds = %39, %.preheader.i10
  %.0.in.i = phi i64 [ %.0.i, %39 ], [ %32, %.preheader.i10 ]
  %.0.i = add i64 %.0.in.i, -1
  %.not27.i = icmp eq i64 %.0.i, 0
  br i1 %.not27.i, label %suggest_compaction_segment.exit, label %39

39:                                               ; preds = %38
  %gep.i = getelementptr i64, ptr %invariant.gep.i, i64 %.0.in.i
  %40 = load i64, ptr %gep.i, align 8, !tbaa !12, !noalias !82
  %41 = getelementptr inbounds nuw i64, ptr %16, i64 %.0.i
  %42 = load i64, ptr %41, align 8, !tbaa !12, !noalias !82
  %43 = mul i64 %42, %37
  %44 = icmp ult i64 %40, %43
  br i1 %44, label %.lr.ph.i12, label %38, !llvm.loop !85

.lr.ph.i12:                                       ; preds = %39, %.lr.ph.i12
  %.136.i = phi i64 [ %46, %.lr.ph.i12 ], [ %.0.i, %39 ]
  %.12535.i = phi i64 [ %49, %.lr.ph.i12 ], [ %42, %39 ]
  %45 = phi i64 [ %spec.select39.i, %.lr.ph.i12 ], [ 0, %39 ]
  %46 = add i64 %.136.i, -1
  %47 = getelementptr inbounds nuw i64, ptr %16, i64 %46
  %48 = load i64, ptr %47, align 8, !tbaa !12, !noalias !82
  %49 = add i64 %48, %.12535.i
  %50 = mul i64 %.12535.i, %37
  %51 = icmp ult i64 %48, %50
  %spec.select39.i = select i1 %51, i64 %46, i64 %45
  %.not28.i = icmp eq i64 %46, 0
  br i1 %.not28.i, label %suggest_compaction_segment.exit, label %.lr.ph.i12, !llvm.loop !86

suggest_compaction_segment.exit:                  ; preds = %38, %.lr.ph.i12, %.preheader.i, %.loopexit
  %.sroa.0.0 = phi i64 [ 0, %.loopexit ], [ 0, %.preheader.i ], [ %spec.select39.i, %.lr.ph.i12 ], [ 0, %38 ]
  %.sroa.5.1 = phi i64 [ 0, %.loopexit ], [ 0, %.preheader.i ], [ %.0.in.i, %.lr.ph.i12 ], [ 0, %38 ]
  tail call void @reftable_free(ptr noundef nonnull %16) #16
  %52 = sub i64 %.sroa.5.1, %.sroa.0.0
  %53 = trunc i64 %52 to i32
  %54 = icmp sgt i32 %53, 0
  br i1 %54, label %55, label %stack_table_sizes_for_compaction.exit

55:                                               ; preds = %suggest_compaction_segment.exit
  %56 = add i64 %.sroa.5.1, -1
  %57 = tail call fastcc i32 @stack_compact_range(ptr noundef %0, i64 noundef %.sroa.0.0, i64 noundef %56, ptr noundef null, i32 noundef 1)
  br label %stack_table_sizes_for_compaction.exit

stack_table_sizes_for_compaction.exit:            ; preds = %7, %suggest_compaction_segment.exit, %1, %55
  %.0 = phi i32 [ %57, %55 ], [ 0, %1 ], [ 0, %suggest_compaction_segment.exit ], [ -13, %7 ]
  ret i32 %.0
}